; Function Attrs: nounwind uwtable
define hidden i32 @SDL_GetNumJoystickBalls_REAL(ptr noundef %0) local_unnamed_addr #1 {
  %2 = tail call zeroext i1 @SDL_ObjectValid(ptr noundef %0, i32 noundef 4) #13
  br i1 %2, label %15, label %3

3:                                                ; preds = %1
  %4 = tail call zeroext i1 (ptr, ...) @SDL_SetError_REAL(ptr noundef nonnull @.str.2, ptr noundef nonnull @.str.3) #13
  %5 = load i32, ptr @SDL_joysticks_locked, align 4
  %6 = add nsw i32 %5, -1
  store i32 %6, ptr @SDL_joysticks_locked, align 4
  %.b4.i = load i1, ptr @SDL_joysticks_initialized, align 1
  %7 = icmp ne i32 %6, 0
  %or.cond.i = select i1 %.b4.i, i1 true, i1 %7
  br i1 %or.cond.i, label %.critedge.i, label %8

8:                                                ; preds = %3
  %9 = tail call i32 @SDL_GetAtomicInt_REAL(ptr noundef nonnull @SDL_joystick_lock_pending) #13
  %10 = icmp eq i32 %9, 0
  br i1 %10, label %11, label %.critedge.i

11:                                               ; preds = %8
  %12 = load ptr, ptr @SDL_joystick_lock, align 8
  tail call void @SDL_LockMutex_REAL(ptr noundef %12) #13
  %13 = load ptr, ptr @SDL_joystick_lock, align 8
  tail call void @SDL_UnlockMutex_REAL(ptr noundef %13) #13
  store ptr null, ptr @SDL_joystick_lock, align 8
  tail call void @SDL_UnlockMutex_REAL(ptr noundef %12) #13
  tail call void @SDL_DestroyMutex_REAL(ptr noundef %12) #13
  br label %SDL_UnlockJoysticks_REAL.exit

.critedge.i:                                      ; preds = %8, %3
  %14 = load ptr, ptr @SDL_joystick_lock, align 8
  tail call void @SDL_UnlockMutex_REAL(ptr noundef %14) #13
  br label %SDL_UnlockJoysticks_REAL.exit

15:                                               ; preds = %1
  %16 = getelementptr inbounds nuw i8, ptr %0, i64 80
  %17 = load i32, ptr %16, align 8
  br label %SDL_UnlockJoysticks_REAL.exit

SDL_UnlockJoysticks_REAL.exit:                    ; preds = %.critedge.i, %11, %15
  %.0 = phi i32 [ %17, %15 ], [ -1, %11 ], [ -1, %.critedge.i ]
  ret i32 %.0
}